; Function Attrs: mustprogress uwtable
define void @_ZN7rocksdb16ThreadStatusUtil26SetThreadOperationPropertyEim(i32 noundef %0, i64 noundef %1) local_unnamed_addr #3 align 2 {
  %3 = tail call align 8 ptr @llvm.threadlocal.address.p0(ptr align 8 @_ZN7rocksdb16ThreadStatusUtil27thread_updater_local_cache_E)
  %4 = load ptr, ptr %3, align 8, !tbaa !18
  %5 = icmp eq ptr %4, null
  br i1 %5, label %7, label %6

6:                                                ; preds = %2
  tail call void @_ZN7rocksdb19ThreadStatusUpdater26SetThreadOperationPropertyEim(ptr noundef nonnull align 8 dereferenceable(216) %4, i32 noundef %0, i64 noundef %1)
  br label %7

7:                                                ; preds = %2, %6
  ret void
}